; Function Attrs: mustprogress uwtable
define internal fastcc void @_ZN4LuauL17autocompletePropsERKNS_6ModuleEPNS_9TypeArenaENS_7NotNullINS_12BuiltinTypesEEEPKNS_4TypeENS_13PropIndexTypeERKSt6vectorIPNS_7AstNodeESaISE_EERSt13unordered_mapINSt7__cxx1112basic_stringIcSt11char_traitsIcESaIcEEENS_17AutocompleteEntryESt4hashISP_ESt8equal_toISP_ESaISt4pairIKSP_SQ_EEE(ptr noundef nonnull align 8 dereferenceable(952) %0, ptr noundef %1, ptr %2, ptr noundef %3, i32 noundef %4, ptr noundef nonnull align 8 dereferenceable(24) %5, ptr noundef nonnull align 8 dereferenceable(56) %6) unnamed_addr #5 personality ptr @__gxx_personality_v0 {
  %8 = alloca %"class.std::unordered_set.495", align 8
  %9 = alloca %"class.std::optional.249", align 8
  %10 = getelementptr inbounds i8, ptr %8, i64 48
  store ptr %10, ptr %8, align 8
  %11 = getelementptr inbounds i8, ptr %8, i64 8
  store i64 1, ptr %11, align 8
  %12 = getelementptr inbounds i8, ptr %8, i64 16
  %13 = getelementptr inbounds i8, ptr %8, i64 32
  call void @llvm.memset.p0.i64(ptr noundef nonnull align 8 dereferenceable(16) %12, i8 0, i64 16, i1 false)
  store float 1.000000e+00, ptr %13, align 8
  %14 = getelementptr inbounds i8, ptr %8, i64 40
  call void @llvm.memset.p0.i64(ptr noundef nonnull align 8 dereferenceable(16) %14, i8 0, i64 16, i1 false)
  %15 = getelementptr inbounds i8, ptr %9, i64 8
  store i8 0, ptr %15, align 8
  invoke fastcc void @_ZN4LuauL17autocompletePropsERKNS_6ModuleEPNS_9TypeArenaENS_7NotNullINS_12BuiltinTypesEEEPKNS_4TypeESA_NS_13PropIndexTypeERKSt6vectorIPNS_7AstNodeESaISE_EERSt13unordered_mapINSt7__cxx1112basic_stringIcSt11char_traitsIcESaIcEEENS_17AutocompleteEntryESt4hashISP_ESt8equal_toISP_ESaISt4pairIKSP_SQ_EEERSt13unordered_setISA_SR_ISA_EST_ISA_ESaISA_EESt8optionalIPKNS_9ClassTypeEE(ptr noundef nonnull align 8 dereferenceable(952) %0, ptr noundef %1, ptr %2, ptr noundef %3, ptr noundef %3, i32 noundef %4, ptr noundef nonnull align 8 dereferenceable(24) %5, ptr noundef nonnull align 8 dereferenceable(56) %6, ptr noundef nonnull align 8 dereferenceable(56) %8, ptr noundef nonnull byval(%"class.std::optional.249") align 8 %9)
          to label %16 unwind label %27

16:                                               ; preds = %7
  %17 = load ptr, ptr %12, align 8
  %.not5.i.i.i.i = icmp eq ptr %17, null
  br i1 %.not5.i.i.i.i, label %_ZNSt10_HashtableIPKN4Luau4TypeES3_SaIS3_ENSt8__detail9_IdentityESt8equal_toIS3_ESt4hashIS3_ENS5_18_Mod_range_hashingENS5_20_Default_ranged_hashENS5_20_Prime_rehash_policyENS5_17_Hashtable_traitsILb0ELb1ELb1EEEE5clearEv.exit.i.i, label %.lr.ph.i.i.i.i

.lr.ph.i.i.i.i:                                   ; preds = %16, %.lr.ph.i.i.i.i
  %.06.i.i.i.i = phi ptr [ %18, %.lr.ph.i.i.i.i ], [ %17, %16 ]
  %18 = load ptr, ptr %.06.i.i.i.i, align 8
  call void @_ZdlPvm(ptr noundef nonnull %.06.i.i.i.i, i64 noundef 16) #21
  %.not.i.i.i.i = icmp eq ptr %18, null
  br i1 %.not.i.i.i.i, label %_ZNSt10_HashtableIPKN4Luau4TypeES3_SaIS3_ENSt8__detail9_IdentityESt8equal_toIS3_ESt4hashIS3_ENS5_18_Mod_range_hashingENS5_20_Default_ranged_hashENS5_20_Prime_rehash_policyENS5_17_Hashtable_traitsILb0ELb1ELb1EEEE5clearEv.exit.i.i, label %.lr.ph.i.i.i.i, !llvm.loop !8

_ZNSt10_HashtableIPKN4Luau4TypeES3_SaIS3_ENSt8__detail9_IdentityESt8equal_toIS3_ESt4hashIS3_ENS5_18_Mod_range_hashingENS5_20_Default_ranged_hashENS5_20_Prime_rehash_policyENS5_17_Hashtable_traitsILb0ELb1ELb1EEEE5clearEv.exit.i.i: ; preds = %.lr.ph.i.i.i.i, %16
  %19 = load ptr, ptr %8, align 8
  %20 = load i64, ptr %11, align 8
  %21 = shl i64 %20, 3
  call void @llvm.memset.p0.i64(ptr align 8 %19, i8 0, i64 %21, i1 false)
  call void @llvm.memset.p0.i64(ptr noundef nonnull align 8 dereferenceable(16) %12, i8 0, i64 16, i1 false)
  %22 = load ptr, ptr %8, align 8
  %23 = icmp eq ptr %10, %22
  br i1 %23, label %_ZNSt13unordered_setIPKN4Luau4TypeESt4hashIS3_ESt8equal_toIS3_ESaIS3_EED2Ev.exit, label %24

24:                                               ; preds = %_ZNSt10_HashtableIPKN4Luau4TypeES3_SaIS3_ENSt8__detail9_IdentityESt8equal_toIS3_ESt4hashIS3_ENS5_18_Mod_range_hashingENS5_20_Default_ranged_hashENS5_20_Prime_rehash_policyENS5_17_Hashtable_traitsILb0ELb1ELb1EEEE5clearEv.exit.i.i
  %25 = load i64, ptr %11, align 8
  %26 = shl i64 %25, 3
  call void @_ZdlPvm(ptr noundef %22, i64 noundef %26) #21
  br label %_ZNSt13unordered_setIPKN4Luau4TypeESt4hashIS3_ESt8equal_toIS3_ESaIS3_EED2Ev.exit

_ZNSt13unordered_setIPKN4Luau4TypeESt4hashIS3_ESt8equal_toIS3_ESaIS3_EED2Ev.exit: ; preds = %_ZNSt10_HashtableIPKN4Luau4TypeES3_SaIS3_ENSt8__detail9_IdentityESt8equal_toIS3_ESt4hashIS3_ENS5_18_Mod_range_hashingENS5_20_Default_ranged_hashENS5_20_Prime_rehash_policyENS5_17_Hashtable_traitsILb0ELb1ELb1EEEE5clearEv.exit.i.i, %24
  ret void

27:                                               ; preds = %7
  %28 = landingpad { ptr, i32 }
          cleanup
  call void @_ZNSt13unordered_setIPKN4Luau4TypeESt4hashIS3_ESt8equal_toIS3_ESaIS3_EED2Ev(ptr noundef nonnull align 8 dereferenceable(56) %8) #22
  resume { ptr, i32 } %28
}